target datalayout = "e-m:e-p270:32:32-p271:32:32-p272:64:64-i64:64-i128:128-f80:128-n8:16:32:64-S128"
target triple = "x86_64-pc-linux-gnu"

%struct.ps_prochandle = type { ptr, i32, i32, ptr, ptr, i32, ptr, ptr }
%struct.thread_info = type { i32, %struct.user_regs_struct, ptr }
%struct.user_regs_struct = type { i64, i64, i64, i64, i64, i64, i64, i64, i64, i64, i64, i64, i64, i64, i64, i64, i64, i64, i64, i64, i64, i64, i64, i64, i64, i64, i64 }

@.str.13 = private unnamed_addr constant [40 x i8] c"Could not find the thread to be removed\00", align 1

; Function Attrs: nounwind uwtable
define hidden void @delete_thread_info(ptr noundef %0, ptr noundef %1) #0 {
  %3 = alloca ptr, align 8
  %4 = alloca ptr, align 8
  %5 = alloca ptr, align 8
  %6 = alloca ptr, align 8
  store ptr %0, ptr %3, align 8
  store ptr %1, ptr %4, align 8
  %7 = load ptr, ptr %3, align 8
  %8 = getelementptr inbounds %struct.ps_prochandle, ptr %7, i32 0, i32 6
  %9 = load ptr, ptr %8, align 8
  store ptr %9, ptr %5, align 8
  %10 = load ptr, ptr %4, align 8
  %11 = load ptr, ptr %3, align 8
  %12 = getelementptr inbounds %struct.ps_prochandle, ptr %11, i32 0, i32 6
  %13 = load ptr, ptr %12, align 8
  %14 = icmp eq ptr %10, %13
  br i1 %14, label %15, label %23

15:                                               ; preds = %2
  %16 = load ptr, ptr %3, align 8
  %17 = getelementptr inbounds %struct.ps_prochandle, ptr %16, i32 0, i32 6
  %18 = load ptr, ptr %17, align 8
  %19 = getelementptr inbounds %struct.thread_info, ptr %18, i32 0, i32 2
  %20 = load ptr, ptr %19, align 8
  %21 = load ptr, ptr %3, align 8
  %22 = getelementptr inbounds %struct.ps_prochandle, ptr %21, i32 0, i32 6
  store ptr %20, ptr %22, align 8
  br label %48

23:                                               ; preds = %2
  store ptr null, ptr %6, align 8
  br label %24

24:                                               ; preds = %33, %23
  %25 = load ptr, ptr %5, align 8
  %26 = icmp ne ptr %25, null
  br i1 %26, label %27, label %31

27:                                               ; preds = %24
  %28 = load ptr, ptr %5, align 8
  %29 = load ptr, ptr %4, align 8
  %30 = icmp ne ptr %28, %29
  br label %31

31:                                               ; preds = %27, %24
  %32 = phi i1 [ false, %24 ], [ %30, %27 ]
  br i1 %32, label %33, label %38

33:                                               ; preds = %31
  %34 = load ptr, ptr %5, align 8
  store ptr %34, ptr %6, align 8
  %35 = load ptr, ptr %5, align 8
  %36 = getelementptr inbounds %struct.thread_info, ptr %35, i32 0, i32 2
  %37 = load ptr, ptr %36, align 8
  store ptr %37, ptr %5, align 8
  br label %24, !llvm.loop !13

38:                                               ; preds = %31
  %39 = load ptr, ptr %5, align 8
  %40 = icmp eq ptr %39, null
  br i1 %40, label %41, label %42

41:                                               ; preds = %38
  call void (ptr, ...) @print_error(ptr noundef @.str.13)
  br label %54

42:                                               ; preds = %38
  %43 = load ptr, ptr %5, align 8
  %44 = getelementptr inbounds %struct.thread_info, ptr %43, i32 0, i32 2
  %45 = load ptr, ptr %44, align 8
  %46 = load ptr, ptr %6, align 8
  %47 = getelementptr inbounds %struct.thread_info, ptr %46, i32 0, i32 2
  store ptr %45, ptr %47, align 8
  br label %48

48:                                               ; preds = %42, %15
  %49 = load ptr, ptr %3, align 8
  %50 = getelementptr inbounds %struct.ps_prochandle, ptr %49, i32 0, i32 5
  %51 = load i32, ptr %50, align 8
  %52 = add nsw i32 %51, -1
  store i32 %52, ptr %50, align 8
  %53 = load ptr, ptr %5, align 8
  call void @free(ptr noundef %53) #6
  br label %54

54:                                               ; preds = %48, %41
  ret void
}