; Function Attrs: nounwind uwtable
define hidden void @delete_thread_info(ptr nocapture noundef %0, ptr noundef readnone %1) local_unnamed_addr #9 {
  %3 = getelementptr inbounds i8, ptr %0, i64 40
  %4 = load ptr, ptr %3, align 8
  %5 = icmp eq ptr %4, %1
  br i1 %5, label %6, label %.preheader

.preheader:                                       ; preds = %2
  %.not = icmp eq ptr %4, null
  br i1 %.not, label %._crit_edge.thread, label %.lr.ph

6:                                                ; preds = %2
  %7 = getelementptr inbounds i8, ptr %4, i64 224
  %8 = load ptr, ptr %7, align 8
  store ptr %8, ptr %3, align 8
  br label %19

.lr.ph:                                           ; preds = %.preheader, %.lr.ph
  %.01519 = phi ptr [ %10, %.lr.ph ], [ %4, %.preheader ]
  %9 = getelementptr inbounds i8, ptr %.01519, i64 224
  %10 = load ptr, ptr %9, align 8
  %11 = icmp ne ptr %10, null
  %12 = icmp ne ptr %10, %1
  %13 = and i1 %11, %12
  br i1 %13, label %.lr.ph, label %._crit_edge, !llvm.loop !13

._crit_edge:                                      ; preds = %.lr.ph
  %14 = icmp eq ptr %10, null
  br i1 %14, label %._crit_edge.thread, label %15

._crit_edge.thread:                               ; preds = %.preheader, %._crit_edge
  tail call void (ptr, ...) @print_error(ptr noundef nonnull @.str.13)
  br label %23

15:                                               ; preds = %._crit_edge
  %16 = getelementptr inbounds i8, ptr %10, i64 224
  %17 = load ptr, ptr %16, align 8
  %18 = getelementptr inbounds i8, ptr %.01519, i64 224
  store ptr %17, ptr %18, align 8
  br label %19

19:                                               ; preds = %15, %6
  %.1 = phi ptr [ %4, %6 ], [ %10, %15 ]
  %20 = getelementptr inbounds i8, ptr %0, i64 32
  %21 = load i32, ptr %20, align 8
  %22 = add nsw i32 %21, -1
  store i32 %22, ptr %20, align 8
  tail call void @free(ptr noundef nonnull %.1) #21
  br label %23

23:                                               ; preds = %19, %._crit_edge.thread
  ret void
}